; Function Attrs: mustprogress uwtable
define hidden i64 @_ZNK7nanogui9TabWidget14preferred_sizeEP10NVGcontext(ptr noundef nonnull align 8 dereferenceable(473) %0, ptr noundef %1) unnamed_addr #0 align 2 {
_ZN7nanogui5ArrayIiLm2EEC2Ei.exit.critedge:
  %2 = tail call i64 @_ZNK7nanogui13TabWidgetBase14preferred_sizeEP10NVGcontext(ptr noundef nonnull align 8 dereferenceable(416) %0, ptr noundef %1)
  %3 = getelementptr inbounds i8, ptr %0, i64 64
  %4 = load ptr, ptr %3, align 8
  %5 = getelementptr inbounds i8, ptr %0, i64 72
  %6 = load ptr, ptr %5, align 8
  %.not25 = icmp eq ptr %4, %6
  br i1 %.not25, label %._crit_edge, label %_ZN7nanogui3maxIiLm2EEENS_5ArrayIT_XT0_EEERKS3_S5_.exit.critedge

_ZN7nanogui3maxIiLm2EEENS_5ArrayIT_XT0_EEERKS3_S5_.exit.critedge: ; preds = %_ZN7nanogui5ArrayIiLm2EEC2Ei.exit.critedge, %_ZN7nanogui3maxIiLm2EEENS_5ArrayIT_XT0_EEERKS3_S5_.exit.critedge
  %.sroa.010.026 = phi ptr [ %16, %_ZN7nanogui3maxIiLm2EEENS_5ArrayIT_XT0_EEERKS3_S5_.exit.critedge ], [ %4, %_ZN7nanogui5ArrayIiLm2EEC2Ei.exit.critedge ]
  %7 = phi i32 [ %14, %_ZN7nanogui3maxIiLm2EEENS_5ArrayIT_XT0_EEERKS3_S5_.exit.critedge ], [ 0, %_ZN7nanogui5ArrayIiLm2EEC2Ei.exit.critedge ]
  %8 = phi i32 [ %15, %_ZN7nanogui3maxIiLm2EEENS_5ArrayIT_XT0_EEERKS3_S5_.exit.critedge ], [ 0, %_ZN7nanogui5ArrayIiLm2EEC2Ei.exit.critedge ]
  %9 = load ptr, ptr %.sroa.010.026, align 8
  %10 = load ptr, ptr %9, align 8
  %11 = getelementptr inbounds i8, ptr %10, i64 96
  %12 = load ptr, ptr %11, align 8
  %13 = tail call i64 %12(ptr noundef nonnull align 8 dereferenceable(140) %9, ptr noundef %1)
  %.sroa.0.0.extract.trunc = trunc i64 %13 to i32
  %.sroa.2.0.extract.shift = lshr i64 %13, 32
  %.sroa.2.0.extract.trunc = trunc i64 %.sroa.2.0.extract.shift to i32
  %14 = tail call i32 @llvm.smax.i32(i32 %7, i32 %.sroa.0.0.extract.trunc)
  %15 = tail call i32 @llvm.smax.i32(i32 %8, i32 %.sroa.2.0.extract.trunc)
  %16 = getelementptr inbounds i8, ptr %.sroa.010.026, i64 8
  %.not = icmp eq ptr %16, %6
  br i1 %.not, label %._crit_edge, label %_ZN7nanogui3maxIiLm2EEENS_5ArrayIT_XT0_EEERKS3_S5_.exit.critedge

._crit_edge:                                      ; preds = %_ZN7nanogui3maxIiLm2EEENS_5ArrayIT_XT0_EEERKS3_S5_.exit.critedge, %_ZN7nanogui5ArrayIiLm2EEC2Ei.exit.critedge
  %.lcssa24 = phi i32 [ 0, %_ZN7nanogui5ArrayIiLm2EEC2Ei.exit.critedge ], [ %15, %_ZN7nanogui3maxIiLm2EEENS_5ArrayIT_XT0_EEERKS3_S5_.exit.critedge ]
  %.lcssa = phi i32 [ 0, %_ZN7nanogui5ArrayIiLm2EEC2Ei.exit.critedge ], [ %14, %_ZN7nanogui3maxIiLm2EEENS_5ArrayIT_XT0_EEERKS3_S5_.exit.critedge ]
  %.sroa.3.0.extract.shift = lshr i64 %2, 32
  %.sroa.3.0.extract.trunc = trunc i64 %.sroa.3.0.extract.shift to i32
  %.sroa.017.0.extract.trunc = trunc i64 %2 to i32
  %17 = getelementptr inbounds i8, ptr %0, i64 300
  %18 = load i32, ptr %17, align 4
  %19 = shl nsw i32 %18, 1
  %20 = add nsw i32 %19, %.lcssa
  %.sroa.speculated = tail call i32 @llvm.smax.i32(i32 %20, i32 %.sroa.017.0.extract.trunc)
  %21 = add nsw i32 %.lcssa24, %.sroa.3.0.extract.trunc
  %22 = add nsw i32 %21, %19
  %.sroa.219.0.insert.ext = zext i32 %22 to i64
  %.sroa.219.0.insert.shift = shl nuw i64 %.sroa.219.0.insert.ext, 32
  %.sroa.018.0.insert.ext = zext i32 %.sroa.speculated to i64
  %.sroa.018.0.insert.insert = or disjoint i64 %.sroa.219.0.insert.shift, %.sroa.018.0.insert.ext
  ret i64 %.sroa.018.0.insert.insert
}